; Function Attrs: mustprogress nofree norecurse nosync nounwind willreturn memory(readwrite, inaccessiblemem: none) uwtable
define hidden noundef nonnull align 8 dereferenceable(8) ptr @_ZN4cvc58internal7IntStatppEv(ptr noundef nonnull readonly returned align 8 dereferenceable(8) %this) local_unnamed_addr #0 align 2 {
entry:
  %0 = load ptr, ptr %this, align 8
  %d_value = getelementptr inbounds nuw i8, ptr %0, i64 16
  %1 = load i64, ptr %d_value, align 8
  %inc = add nsw i64 %1, 1
  store i64 %inc, ptr %d_value, align 8
  ret ptr %this
}